target datalayout = "e-m:e-p270:32:32-p271:32:32-p272:64:64-i64:64-i128:128-f80:128-n8:16:32:64-S128"
target triple = "x86_64-unknown-linux-gnu"

%class.pdecl.base = type <{ ptr, i32, i32, i32 }>
%class.pdecl = type <{ ptr, i32, i32, i32, [4 x i8] }>
%class.psort_decl = type { %class.pdecl.base, %class.symbol, i32, ptr }
%class.symbol = type { ptr }
%class.pdatatype_decl = type { %class.psort_decl, %class.ptr_vector.63, ptr }
%class.ptr_vector.63 = type { %class.vector.64 }
%class.vector.64 = type { ptr }
%class.pdatatypes_decl = type { %class.pdecl.base, %class.ptr_vector.112 }
%class.ptr_vector.112 = type { %class.vector.113 }
%class.vector.113 = type { ptr }

@.str = private unnamed_addr constant [3 x i8] c" (\00", align 1
@.str.1 = private unnamed_addr constant [2 x i8] c" \00", align 1
@.str.2 = private unnamed_addr constant [3 x i8] c"s_\00", align 1
@.str.3 = private unnamed_addr constant [3 x i8] c") \00", align 1
@.str.5 = private unnamed_addr constant [2 x i8] c")\00", align 1
@.str.12 = private unnamed_addr constant [19 x i8] c"(declare-datatype \00", align 1
@.str.22 = private unnamed_addr constant [5 x i8] c"null\00", align 1
@.str.23 = private unnamed_addr constant [3 x i8] c"k!\00", align 1

; Function Attrs: mustprogress nounwind uwtable
define linkonce_odr hidden noundef ptr @_ZNK6vectorIP14pdatatype_declLb0EjE4dataEv(ptr noundef nonnull align 8 dereferenceable(8) %this) #5 comdat align 2 {
entry:
  %this.addr = alloca ptr, align 8
  store ptr %this, ptr %this.addr, align 8
  %this1 = load ptr, ptr %this.addr, align 8
  %m_data = getelementptr inbounds %class.vector.113, ptr %this1, i32 0, i32 0
  %0 = load ptr, ptr %m_data, align 8
  ret ptr %0
}

; Function Attrs: mustprogress nounwind uwtable
define linkonce_odr hidden noundef i32 @_ZNK6vectorIP17pconstructor_declLb0EjE4sizeEv(ptr noundef nonnull align 8 dereferenceable(8) %this) #5 comdat align 2 {
entry:
  %retval = alloca i32, align 4
  %this.addr = alloca ptr, align 8
  store ptr %this, ptr %this.addr, align 8
  %this1 = load ptr, ptr %this.addr, align 8
  %m_data = getelementptr inbounds %class.vector.64, ptr %this1, i32 0, i32 0
  %0 = load ptr, ptr %m_data, align 8
  %cmp = icmp eq ptr %0, null
  br i1 %cmp, label %if.then, label %if.end

if.then:                                          ; preds = %entry
  store i32 0, ptr %retval, align 4
  br label %return

if.end:                                           ; preds = %entry
  %m_data2 = getelementptr inbounds %class.vector.64, ptr %this1, i32 0, i32 0
  %1 = load ptr, ptr %m_data2, align 8
  %arrayidx = getelementptr inbounds i32, ptr %1, i64 -1
  %2 = load i32, ptr %arrayidx, align 4
  store i32 %2, ptr %retval, align 4
  br label %return

return:                                           ; preds = %if.end, %if.then
  %3 = load i32, ptr %retval, align 4
  ret i32 %3
}

; Function Attrs: mustprogress uwtable
define linkonce_odr hidden noundef ptr @_ZNK15pdatatypes_decl8childrenEv(ptr noundef nonnull align 8 dereferenceable(32) %this) #4 comdat align 2 {
entry:
  %this.addr = alloca ptr, align 8
  store ptr %this, ptr %this.addr, align 8
  %this1 = load ptr, ptr %this.addr, align 8
  %m_datatypes = getelementptr inbounds %class.pdatatypes_decl, ptr %this1, i32 0, i32 1
  %call = call noundef ptr @_ZNK6vectorIP14pdatatype_declLb0EjE4dataEv(ptr noundef nonnull align 8 dereferenceable(8) %m_datatypes)
  ret ptr %call
}

; Function Attrs: mustprogress nounwind uwtable
define linkonce_odr hidden noundef ptr @_ZNK6vectorIP17pconstructor_declLb0EjE3endEv(ptr noundef nonnull align 8 dereferenceable(8) %this) #5 comdat align 2 {
entry:
  %this.addr = alloca ptr, align 8
  store ptr %this, ptr %this.addr, align 8
  %this1 = load ptr, ptr %this.addr, align 8
  %m_data = getelementptr inbounds %class.vector.64, ptr %this1, i32 0, i32 0
  %0 = load ptr, ptr %m_data, align 8
  %call = call noundef i32 @_ZNK6vectorIP17pconstructor_declLb0EjE4sizeEv(ptr noundef nonnull align 8 dereferenceable(8) %this1)
  %idx.ext = zext i32 %call to i64
  %add.ptr = getelementptr inbounds ptr, ptr %0, i64 %idx.ext
  ret ptr %add.ptr
}

; Function Attrs: mustprogress nounwind uwtable
define linkonce_odr hidden noundef ptr @_ZNK6vectorIP17pconstructor_declLb0EjE5beginEv(ptr noundef nonnull align 8 dereferenceable(8) %this) #5 comdat align 2 {
entry:
  %this.addr = alloca ptr, align 8
  store ptr %this, ptr %this.addr, align 8
  %this1 = load ptr, ptr %this.addr, align 8
  %m_data = getelementptr inbounds %class.vector.64, ptr %this1, i32 0, i32 0
  %0 = load ptr, ptr %m_data, align 8
  ret ptr %0
}

; Function Attrs: mustprogress uwtable
define hidden void @_Z17display_sort_argsRSoj(ptr noundef nonnull align 8 dereferenceable(8) %out, i32 noundef %num_params) #4 {
entry:
  %out.addr = alloca ptr, align 8
  %num_params.addr = alloca i32, align 4
  %i = alloca i32, align 4
  store ptr %out, ptr %out.addr, align 8
  store i32 %num_params, ptr %num_params.addr, align 4
  %0 = load i32, ptr %num_params.addr, align 4
  %cmp = icmp ugt i32 %0, 0
  br i1 %cmp, label %if.then, label %if.end

if.then:                                          ; preds = %entry
  %1 = load ptr, ptr %out.addr, align 8
  %call = call noundef nonnull align 8 dereferenceable(8) ptr @_ZStlsISt11char_traitsIcEERSt13basic_ostreamIcT_ES5_PKc(ptr noundef nonnull align 8 dereferenceable(8) %1, ptr noundef @.str)
  br label %if.end

if.end:                                           ; preds = %if.then, %entry
  store i32 0, ptr %i, align 4
  br label %for.cond

for.cond:                                         ; preds = %for.inc, %if.end
  %2 = load i32, ptr %i, align 4
  %3 = load i32, ptr %num_params.addr, align 4
  %cmp1 = icmp ult i32 %2, %3
  br i1 %cmp1, label %for.body, label %for.end

for.body:                                         ; preds = %for.cond
  %4 = load i32, ptr %i, align 4
  %cmp2 = icmp ugt i32 %4, 0
  br i1 %cmp2, label %if.then3, label %if.end5

if.then3:                                         ; preds = %for.body
  %5 = load ptr, ptr %out.addr, align 8
  %call4 = call noundef nonnull align 8 dereferenceable(8) ptr @_ZStlsISt11char_traitsIcEERSt13basic_ostreamIcT_ES5_PKc(ptr noundef nonnull align 8 dereferenceable(8) %5, ptr noundef @.str.1)
  br label %if.end5

if.end5:                                          ; preds = %if.then3, %for.body
  %6 = load ptr, ptr %out.addr, align 8
  %call6 = call noundef nonnull align 8 dereferenceable(8) ptr @_ZStlsISt11char_traitsIcEERSt13basic_ostreamIcT_ES5_PKc(ptr noundef nonnull align 8 dereferenceable(8) %6, ptr noundef @.str.2)
  %7 = load i32, ptr %i, align 4
  %call7 = call noundef nonnull align 8 dereferenceable(8) ptr @_ZNSolsEj(ptr noundef nonnull align 8 dereferenceable(8) %call6, i32 noundef %7)
  br label %for.inc

for.inc:                                          ; preds = %if.end5
  %8 = load i32, ptr %i, align 4
  %inc = add i32 %8, 1
  store i32 %inc, ptr %i, align 4
  br label %for.cond, !llvm.loop !8

for.end:                                          ; preds = %for.cond
  %9 = load i32, ptr %num_params.addr, align 4
  %cmp8 = icmp ugt i32 %9, 0
  br i1 %cmp8, label %if.then9, label %if.end11

if.then9:                                         ; preds = %for.end
  %10 = load ptr, ptr %out.addr, align 8
  %call10 = call noundef nonnull align 8 dereferenceable(8) ptr @_ZStlsISt11char_traitsIcEERSt13basic_ostreamIcT_ES5_PKc(ptr noundef nonnull align 8 dereferenceable(8) %10, ptr noundef @.str.3)
  br label %if.end11

if.end11:                                         ; preds = %if.then9, %for.end
  ret void
}

; Function Attrs: mustprogress uwtable
define linkonce_odr hidden noundef nonnull align 8 dereferenceable(8) ptr @_ZlsRSo6symbol(ptr noundef nonnull align 8 dereferenceable(8) %target, ptr %s.coerce) #4 comdat {
entry:
  %s = alloca %class.symbol, align 8
  %target.addr = alloca ptr, align 8
  %coerce.dive = getelementptr inbounds %class.symbol, ptr %s, i32 0, i32 0
  store ptr %s.coerce, ptr %coerce.dive, align 8
  store ptr %target, ptr %target.addr, align 8
  %m_data = getelementptr inbounds %class.symbol, ptr %s, i32 0, i32 0
  %0 = load ptr, ptr %m_data, align 8
  %1 = ptrtoint ptr %0 to i64
  %and = and i64 %1, 7
  %cmp = icmp eq i64 %and, 0
  br i1 %cmp, label %if.then, label %if.else5

if.then:                                          ; preds = %entry
  %m_data1 = getelementptr inbounds %class.symbol, ptr %s, i32 0, i32 0
  %2 = load ptr, ptr %m_data1, align 8
  %tobool = icmp ne ptr %2, null
  br i1 %tobool, label %if.then2, label %if.else

if.then2:                                         ; preds = %if.then
  %3 = load ptr, ptr %target.addr, align 8
  %m_data3 = getelementptr inbounds %class.symbol, ptr %s, i32 0, i32 0
  %4 = load ptr, ptr %m_data3, align 8
  %call = call noundef nonnull align 8 dereferenceable(8) ptr @_ZStlsISt11char_traitsIcEERSt13basic_ostreamIcT_ES5_PKc(ptr noundef nonnull align 8 dereferenceable(8) %3, ptr noundef %4)
  br label %if.end

if.else:                                          ; preds = %if.then
  %5 = load ptr, ptr %target.addr, align 8
  %call4 = call noundef nonnull align 8 dereferenceable(8) ptr @_ZStlsISt11char_traitsIcEERSt13basic_ostreamIcT_ES5_PKc(ptr noundef nonnull align 8 dereferenceable(8) %5, ptr noundef @.str.22)
  br label %if.end

if.end:                                           ; preds = %if.else, %if.then2
  br label %if.end9

if.else5:                                         ; preds = %entry
  %6 = load ptr, ptr %target.addr, align 8
  %call6 = call noundef nonnull align 8 dereferenceable(8) ptr @_ZStlsISt11char_traitsIcEERSt13basic_ostreamIcT_ES5_PKc(ptr noundef nonnull align 8 dereferenceable(8) %6, ptr noundef @.str.23)
  %m_data7 = getelementptr inbounds %class.symbol, ptr %s, i32 0, i32 0
  %7 = load ptr, ptr %m_data7, align 8
  %8 = ptrtoint ptr %7 to i64
  %shr = lshr i64 %8, 3
  %conv = trunc i64 %shr to i32
  %call8 = call noundef nonnull align 8 dereferenceable(8) ptr @_ZNSolsEi(ptr noundef nonnull align 8 dereferenceable(8) %call6, i32 noundef %conv)
  br label %if.end9

if.end9:                                          ; preds = %if.else5, %if.end
  %9 = load ptr, ptr %target.addr, align 8
  ret ptr %9
}

; Function Attrs: mustprogress uwtable
define hidden noundef nonnull align 8 dereferenceable(8) ptr @_ZNK14pdatatype_decl7displayERSo(ptr noundef nonnull align 8 dereferenceable(64) %this, ptr noundef nonnull align 8 dereferenceable(8) %out) unnamed_addr #4 align 2 {
entry:
  %this.addr = alloca ptr, align 8
  %out.addr = alloca ptr, align 8
  %agg.tmp = alloca %class.symbol, align 8
  %first = alloca i8, align 1
  %__range1 = alloca ptr, align 8
  %__begin1 = alloca ptr, align 8
  %__end1 = alloca ptr, align 8
  %c = alloca ptr, align 8
  %dts = alloca [1 x ptr], align 8
  store ptr %this, ptr %this.addr, align 8
  store ptr %out, ptr %out.addr, align 8
  %this1 = load ptr, ptr %this.addr, align 8
  %0 = load ptr, ptr %out.addr, align 8
  %call = call noundef nonnull align 8 dereferenceable(8) ptr @_ZStlsISt11char_traitsIcEERSt13basic_ostreamIcT_ES5_PKc(ptr noundef nonnull align 8 dereferenceable(8) %0, ptr noundef @.str.12)
  %m_name = getelementptr inbounds %class.psort_decl, ptr %this1, i32 0, i32 1
  call void @llvm.memcpy.p0.p0.i64(ptr align 8 %agg.tmp, ptr align 8 %m_name, i64 8, i1 false)
  %coerce.dive = getelementptr inbounds %class.symbol, ptr %agg.tmp, i32 0, i32 0
  %1 = load ptr, ptr %coerce.dive, align 8
  %call2 = call noundef nonnull align 8 dereferenceable(8) ptr @_ZlsRSo6symbol(ptr noundef nonnull align 8 dereferenceable(8) %call, ptr %1)
  %2 = load ptr, ptr %out.addr, align 8
  %m_num_params = getelementptr inbounds %class.pdecl, ptr %this1, i32 0, i32 2
  %3 = load i32, ptr %m_num_params, align 4
  call void @_Z17display_sort_argsRSoj(ptr noundef nonnull align 8 dereferenceable(8) %2, i32 noundef %3)
  store i8 1, ptr %first, align 1
  %m_constructors = getelementptr inbounds %class.pdatatype_decl, ptr %this1, i32 0, i32 1
  store ptr %m_constructors, ptr %__range1, align 8
  %4 = load ptr, ptr %__range1, align 8
  %call3 = call noundef ptr @_ZNK6vectorIP17pconstructor_declLb0EjE5beginEv(ptr noundef nonnull align 8 dereferenceable(8) %4)
  store ptr %call3, ptr %__begin1, align 8
  %5 = load ptr, ptr %__range1, align 8
  %call4 = call noundef ptr @_ZNK6vectorIP17pconstructor_declLb0EjE3endEv(ptr noundef nonnull align 8 dereferenceable(8) %5)
  store ptr %call4, ptr %__end1, align 8
  br label %for.cond

for.cond:                                         ; preds = %for.inc, %entry
  %6 = load ptr, ptr %__begin1, align 8
  %7 = load ptr, ptr %__end1, align 8
  %cmp = icmp ne ptr %6, %7
  br i1 %cmp, label %for.body, label %for.end

for.body:                                         ; preds = %for.cond
  %8 = load ptr, ptr %__begin1, align 8
  %9 = load ptr, ptr %8, align 8
  store ptr %9, ptr %c, align 8
  %10 = load i8, ptr %first, align 1
  %tobool = trunc i8 %10 to i1
  br i1 %tobool, label %if.end, label %if.then

if.then:                                          ; preds = %for.body
  %11 = load ptr, ptr %out.addr, align 8
  %call5 = call noundef nonnull align 8 dereferenceable(8) ptr @_ZStlsISt11char_traitsIcEERSt13basic_ostreamIcT_ES5_PKc(ptr noundef nonnull align 8 dereferenceable(8) %11, ptr noundef @.str.1)
  br label %if.end

if.end:                                           ; preds = %if.then, %for.body
  %m_parent = getelementptr inbounds %class.pdatatype_decl, ptr %this1, i32 0, i32 2
  %12 = load ptr, ptr %m_parent, align 8
  %tobool6 = icmp ne ptr %12, null
  br i1 %tobool6, label %if.then7, label %if.else

if.then7:                                         ; preds = %if.end
  %13 = load ptr, ptr %c, align 8
  %14 = load ptr, ptr %out.addr, align 8
  %m_parent8 = getelementptr inbounds %class.pdatatype_decl, ptr %this1, i32 0, i32 2
  %15 = load ptr, ptr %m_parent8, align 8
  %call9 = call noundef ptr @_ZNK15pdatatypes_decl8childrenEv(ptr noundef nonnull align 8 dereferenceable(32) %15)
  call void @_ZNK17pconstructor_decl7displayERSoPKPK14pdatatype_decl(ptr noundef nonnull align 8 dereferenceable(48) %13, ptr noundef nonnull align 8 dereferenceable(8) %14, ptr noundef %call9)
  br label %if.end10

if.else:                                          ; preds = %if.end
  %arrayinit.begin = getelementptr inbounds [1 x ptr], ptr %dts, i64 0, i64 0
  store ptr %this1, ptr %arrayinit.begin, align 8
  %16 = load ptr, ptr %c, align 8
  %17 = load ptr, ptr %out.addr, align 8
  %arraydecay = getelementptr inbounds [1 x ptr], ptr %dts, i64 0, i64 0
  call void @_ZNK17pconstructor_decl7displayERSoPKPK14pdatatype_decl(ptr noundef nonnull align 8 dereferenceable(48) %16, ptr noundef nonnull align 8 dereferenceable(8) %17, ptr noundef %arraydecay)
  br label %if.end10

if.end10:                                         ; preds = %if.else, %if.then7
  store i8 0, ptr %first, align 1
  br label %for.inc

for.inc:                                          ; preds = %if.end10
  %18 = load ptr, ptr %__begin1, align 8
  %incdec.ptr = getelementptr inbounds ptr, ptr %18, i32 1
  store ptr %incdec.ptr, ptr %__begin1, align 8
  br label %for.cond

for.end:                                          ; preds = %for.cond
  %19 = load ptr, ptr %out.addr, align 8
  %call11 = call noundef nonnull align 8 dereferenceable(8) ptr @_ZStlsISt11char_traitsIcEERSt13basic_ostreamIcT_ES5_PKc(ptr noundef nonnull align 8 dereferenceable(8) %19, ptr noundef @.str.5)
  ret ptr %call11
}