; Function Attrs: mustprogress uwtable
define hidden noundef nonnull align 8 dereferenceable(8) ptr @_ZNK14pdatatype_decl7displayERSo(ptr noundef nonnull align 8 dereferenceable(64) %this, ptr noundef nonnull align 8 dereferenceable(8) %out) unnamed_addr #3 align 2 {
entry:
  %dts = alloca [1 x ptr], align 8
  %call = tail call noundef nonnull align 8 dereferenceable(8) ptr @_ZStlsISt11char_traitsIcEERSt13basic_ostreamIcT_ES5_PKc(ptr noundef nonnull align 8 dereferenceable(8) %out, ptr noundef nonnull @.str.12)
  %m_name = getelementptr inbounds i8, ptr %this, i64 24
  %agg.tmp.sroa.0.0.copyload = load ptr, ptr %m_name, align 8
  %0 = ptrtoint ptr %agg.tmp.sroa.0.0.copyload to i64
  %and.i = and i64 %0, 7
  %cmp.i = icmp eq i64 %and.i, 0
  br i1 %cmp.i, label %if.then.i, label %if.else5.i

if.then.i:                                        ; preds = %entry
  %tobool.not.i = icmp eq ptr %agg.tmp.sroa.0.0.copyload, null
  br i1 %tobool.not.i, label %if.else.i, label %if.then2.i

if.then2.i:                                       ; preds = %if.then.i
  %call.i = tail call noundef nonnull align 8 dereferenceable(8) ptr @_ZStlsISt11char_traitsIcEERSt13basic_ostreamIcT_ES5_PKc(ptr noundef nonnull align 8 dereferenceable(8) %call, ptr noundef nonnull %agg.tmp.sroa.0.0.copyload)
  br label %_ZlsRSo6symbol.exit

if.else.i:                                        ; preds = %if.then.i
  %call4.i = tail call noundef nonnull align 8 dereferenceable(8) ptr @_ZStlsISt11char_traitsIcEERSt13basic_ostreamIcT_ES5_PKc(ptr noundef nonnull align 8 dereferenceable(8) %call, ptr noundef nonnull @.str.22)
  br label %_ZlsRSo6symbol.exit

if.else5.i:                                       ; preds = %entry
  %call6.i = tail call noundef nonnull align 8 dereferenceable(8) ptr @_ZStlsISt11char_traitsIcEERSt13basic_ostreamIcT_ES5_PKc(ptr noundef nonnull align 8 dereferenceable(8) %call, ptr noundef nonnull @.str.23)
  %shr.i = lshr i64 %0, 3
  %conv.i = trunc i64 %shr.i to i32
  %call8.i = tail call noundef nonnull align 8 dereferenceable(8) ptr @_ZNSolsEi(ptr noundef nonnull align 8 dereferenceable(8) %call6.i, i32 noundef %conv.i)
  br label %_ZlsRSo6symbol.exit

_ZlsRSo6symbol.exit:                              ; preds = %if.then2.i, %if.else.i, %if.else5.i
  %m_num_params = getelementptr inbounds i8, ptr %this, i64 12
  %1 = load i32, ptr %m_num_params, align 4
  %cmp.not.i = icmp eq i32 %1, 0
  br i1 %cmp.not.i, label %_Z17display_sort_argsRSoj.exit, label %for.body.preheader.i

for.body.preheader.i:                             ; preds = %_ZlsRSo6symbol.exit
  %call.i10 = tail call noundef nonnull align 8 dereferenceable(8) ptr @_ZStlsISt11char_traitsIcEERSt13basic_ostreamIcT_ES5_PKc(ptr noundef nonnull align 8 dereferenceable(8) %out, ptr noundef nonnull @.str)
  br label %for.body.i

for.body.i:                                       ; preds = %if.end5.i, %for.body.preheader.i
  %i.010.i = phi i32 [ %inc.i, %if.end5.i ], [ 0, %for.body.preheader.i ]
  %cmp2.not.i = icmp eq i32 %i.010.i, 0
  br i1 %cmp2.not.i, label %if.end5.i, label %if.then3.i

if.then3.i:                                       ; preds = %for.body.i
  %call4.i11 = tail call noundef nonnull align 8 dereferenceable(8) ptr @_ZStlsISt11char_traitsIcEERSt13basic_ostreamIcT_ES5_PKc(ptr noundef nonnull align 8 dereferenceable(8) %out, ptr noundef nonnull @.str.1)
  br label %if.end5.i

if.end5.i:                                        ; preds = %if.then3.i, %for.body.i
  %call6.i12 = tail call noundef nonnull align 8 dereferenceable(8) ptr @_ZStlsISt11char_traitsIcEERSt13basic_ostreamIcT_ES5_PKc(ptr noundef nonnull align 8 dereferenceable(8) %out, ptr noundef nonnull @.str.2)
  %call7.i = tail call noundef nonnull align 8 dereferenceable(8) ptr @_ZNSolsEj(ptr noundef nonnull align 8 dereferenceable(8) %call6.i12, i32 noundef %i.010.i)
  %inc.i = add nuw i32 %i.010.i, 1
  %exitcond.not.i = icmp eq i32 %inc.i, %1
  br i1 %exitcond.not.i, label %if.then9.i, label %for.body.i, !llvm.loop !17

if.then9.i:                                       ; preds = %if.end5.i
  %call10.i = tail call noundef nonnull align 8 dereferenceable(8) ptr @_ZStlsISt11char_traitsIcEERSt13basic_ostreamIcT_ES5_PKc(ptr noundef nonnull align 8 dereferenceable(8) %out, ptr noundef nonnull @.str.3)
  br label %_Z17display_sort_argsRSoj.exit

_Z17display_sort_argsRSoj.exit:                   ; preds = %_ZlsRSo6symbol.exit, %if.then9.i
  %m_constructors = getelementptr inbounds i8, ptr %this, i64 48
  %2 = load ptr, ptr %m_constructors, align 8
  %cmp.i.i = icmp eq ptr %2, null
  br i1 %cmp.i.i, label %for.end, label %_ZNK6vectorIP17pconstructor_declLb0EjE3endEv.exit

_ZNK6vectorIP17pconstructor_declLb0EjE3endEv.exit: ; preds = %_Z17display_sort_argsRSoj.exit
  %arrayidx.i.i = getelementptr inbounds i8, ptr %2, i64 -4
  %3 = load i32, ptr %arrayidx.i.i, align 4
  %4 = zext i32 %3 to i64
  %add.ptr.i = getelementptr inbounds ptr, ptr %2, i64 %4
  %cmp.not13 = icmp eq i32 %3, 0
  br i1 %cmp.not13, label %for.end, label %for.body.lr.ph

for.body.lr.ph:                                   ; preds = %_ZNK6vectorIP17pconstructor_declLb0EjE3endEv.exit
  %m_parent = getelementptr inbounds i8, ptr %this, i64 56
  br label %for.body

for.body:                                         ; preds = %for.body.lr.ph, %if.end10
  %first.015 = phi i1 [ true, %for.body.lr.ph ], [ false, %if.end10 ]
  %__begin1.014 = phi ptr [ %2, %for.body.lr.ph ], [ %incdec.ptr, %if.end10 ]
  %5 = load ptr, ptr %__begin1.014, align 8
  br i1 %first.015, label %if.end, label %if.then

if.then:                                          ; preds = %for.body
  %call5 = tail call noundef nonnull align 8 dereferenceable(8) ptr @_ZStlsISt11char_traitsIcEERSt13basic_ostreamIcT_ES5_PKc(ptr noundef nonnull align 8 dereferenceable(8) %out, ptr noundef nonnull @.str.1)
  br label %if.end

if.end:                                           ; preds = %if.then, %for.body
  %6 = load ptr, ptr %m_parent, align 8
  %tobool6.not = icmp eq ptr %6, null
  br i1 %tobool6.not, label %if.else, label %if.then7

if.then7:                                         ; preds = %if.end
  %m_datatypes.i = getelementptr inbounds i8, ptr %6, i64 24
  %7 = load ptr, ptr %m_datatypes.i, align 8
  tail call void @_ZNK17pconstructor_decl7displayERSoPKPK14pdatatype_decl(ptr noundef nonnull align 8 dereferenceable(48) %5, ptr noundef nonnull align 8 dereferenceable(8) %out, ptr noundef %7)
  br label %if.end10

if.else:                                          ; preds = %if.end
  store ptr %this, ptr %dts, align 8
  call void @_ZNK17pconstructor_decl7displayERSoPKPK14pdatatype_decl(ptr noundef nonnull align 8 dereferenceable(48) %5, ptr noundef nonnull align 8 dereferenceable(8) %out, ptr noundef nonnull %dts)
  br label %if.end10

if.end10:                                         ; preds = %if.else, %if.then7
  %incdec.ptr = getelementptr inbounds i8, ptr %__begin1.014, i64 8
  %cmp.not = icmp eq ptr %incdec.ptr, %add.ptr.i
  br i1 %cmp.not, label %for.end, label %for.body

for.end:                                          ; preds = %if.end10, %_Z17display_sort_argsRSoj.exit, %_ZNK6vectorIP17pconstructor_declLb0EjE3endEv.exit
  %call11 = tail call noundef nonnull align 8 dereferenceable(8) ptr @_ZStlsISt11char_traitsIcEERSt13basic_ostreamIcT_ES5_PKc(ptr noundef nonnull align 8 dereferenceable(8) %out, ptr noundef nonnull @.str.5)
  ret ptr %call11
}